; Function Attrs: nofree nosync nounwind memory(read, inaccessiblemem: none) uwtable
define internal fastcc ptr @zend_ini_consume_quantity_prefix(ptr noundef readonly %0, ptr noundef readnone %1) unnamed_addr #16 {
  %3 = icmp ult ptr %0, %1
  br i1 %3, label %.lr.ph.preheader, label %.critedgethread-pre-split

.lr.ph.preheader:                                 ; preds = %2
  %4 = ptrtoint ptr %1 to i64
  %5 = ptrtoint ptr %0 to i64
  %6 = sub i64 %4, %5
  %scevgep = getelementptr i8, ptr %0, i64 %6
  br label %.lr.ph

.lr.ph:                                           ; preds = %.lr.ph.preheader, %8
  %.021 = phi ptr [ %9, %8 ], [ %0, %.lr.ph.preheader ]
  %7 = load i8, ptr %.021, align 1
  switch i8 %7, label %.critedge [
    i8 32, label %8
    i8 13, label %8
    i8 11, label %8
    i8 10, label %8
    i8 9, label %8
    i8 12, label %8
  ]

8:                                                ; preds = %.lr.ph, %.lr.ph, %.lr.ph, %.lr.ph, %.lr.ph, %.lr.ph
  %9 = getelementptr inbounds i8, ptr %.021, i64 1
  %exitcond.not = icmp eq ptr %9, %1
  br i1 %exitcond.not, label %.critedgethread-pre-split, label %.lr.ph

.critedgethread-pre-split:                        ; preds = %8, %2
  %.0.lcssa = phi ptr [ %0, %2 ], [ %scevgep, %8 ]
  %.pr = load i8, ptr %.0.lcssa, align 1
  br label %.critedge

.critedge:                                        ; preds = %.lr.ph, %.critedgethread-pre-split
  %.020 = phi ptr [ %.0.lcssa, %.critedgethread-pre-split ], [ %.021, %.lr.ph ]
  %10 = phi i8 [ %.pr, %.critedgethread-pre-split ], [ %7, %.lr.ph ]
  switch i8 %10, label %13 [
    i8 43, label %11
    i8 45, label %11
  ]

11:                                               ; preds = %.critedge, %.critedge
  %12 = getelementptr inbounds i8, ptr %.020, i64 1
  %.pre = load i8, ptr %12, align 1
  br label %13

13:                                               ; preds = %.critedge, %11
  %14 = phi i8 [ %.pre, %11 ], [ %10, %.critedge ]
  %.1 = phi ptr [ %12, %11 ], [ %.020, %.critedge ]
  %15 = icmp eq i8 %14, 48
  br i1 %15, label %16, label %30

16:                                               ; preds = %13
  %17 = tail call ptr @__ctype_b_loc() #23
  %18 = load ptr, ptr %17, align 8
  %19 = getelementptr inbounds i8, ptr %.1, i64 1
  %20 = load i8, ptr %19, align 1
  %21 = sext i8 %20 to i64
  %22 = getelementptr inbounds i16, ptr %18, i64 %21
  %23 = load i16, ptr %22, align 2
  %24 = and i16 %23, 2048
  %.not = icmp eq i16 %24, 0
  br i1 %.not, label %25, label %30

25:                                               ; preds = %16
  %26 = icmp eq ptr %19, %1
  br i1 %26, label %30, label %27

27:                                               ; preds = %25
  switch i8 %20, label %30 [
    i8 120, label %28
    i8 88, label %28
    i8 111, label %28
    i8 79, label %28
    i8 98, label %28
    i8 66, label %28
  ]

28:                                               ; preds = %27, %27, %27, %27, %27, %27
  %29 = getelementptr inbounds i8, ptr %.1, i64 2
  br label %30

30:                                               ; preds = %13, %16, %28, %27, %25
  %.017 = phi ptr [ %0, %25 ], [ %.1, %16 ], [ %.1, %27 ], [ %29, %28 ], [ %.1, %13 ]
  ret ptr %.017
}